; Function Attrs: mustprogress nounwind uwtable
define hidden void @_ZN19OpenColorIO_v2_5dev30CTFReaderGradingCurveSlopesEltD2Ev(ptr noundef nonnull align 8 dereferenceable(120) initializes((0, 8)) %0) unnamed_addr #3 align 2 personality ptr @__gxx_personality_v0 {
  store ptr getelementptr inbounds nuw inrange(-16, 72) (i8, ptr @_ZTVN19OpenColorIO_v2_5dev30CTFReaderGradingCurveSlopesEltE, i64 16), ptr %0, align 8, !tbaa !9
  %2 = getelementptr inbounds nuw i8, ptr %0, i64 96
  %3 = load ptr, ptr %2, align 8, !tbaa !880
  %.not.i.i.i = icmp eq ptr %3, null
  br i1 %.not.i.i.i, label %_ZNSt6vectorIfSaIfEED2Ev.exit, label %4

4:                                                ; preds = %1
  %5 = getelementptr inbounds nuw i8, ptr %0, i64 112
  %6 = load ptr, ptr %5, align 8, !tbaa !883
  %7 = ptrtoint ptr %6 to i64
  %8 = ptrtoint ptr %3 to i64
  %9 = sub i64 %7, %8
  tail call void @_ZdlPvm(ptr noundef nonnull %3, i64 noundef %9) #35
  br label %_ZNSt6vectorIfSaIfEED2Ev.exit

_ZNSt6vectorIfSaIfEED2Ev.exit:                    ; preds = %1, %4
  store ptr getelementptr inbounds nuw inrange(-16, 72) (i8, ptr @_ZTVN19OpenColorIO_v2_5dev17XmlReaderPlainEltE, i64 16), ptr %0, align 8, !tbaa !9
  %10 = getelementptr inbounds nuw i8, ptr %0, i64 88
  %11 = load ptr, ptr %10, align 8, !tbaa !33
  %.not.i.i.i1 = icmp eq ptr %11, null
  br i1 %.not.i.i.i1, label %_ZN19OpenColorIO_v2_5dev17XmlReaderPlainEltD2Ev.exit, label %12

12:                                               ; preds = %_ZNSt6vectorIfSaIfEED2Ev.exit
  %13 = getelementptr inbounds nuw i8, ptr %11, i64 8
  %14 = load atomic i64, ptr %13 acquire, align 8
  %15 = icmp eq i64 %14, 4294967297
  %16 = trunc i64 %14 to i32
  br i1 %15, label %17, label %25

17:                                               ; preds = %12
  store i32 0, ptr %13, align 8, !tbaa !26
  %18 = getelementptr inbounds nuw i8, ptr %11, i64 12
  store i32 0, ptr %18, align 4, !tbaa !31
  %19 = load ptr, ptr %11, align 8, !tbaa !9
  %20 = getelementptr inbounds nuw i8, ptr %19, i64 16
  %21 = load ptr, ptr %20, align 8
  tail call void %21(ptr noundef nonnull align 8 dereferenceable(16) %11) #33
  %22 = load ptr, ptr %11, align 8, !tbaa !9
  %23 = getelementptr inbounds nuw i8, ptr %22, i64 24
  %24 = load ptr, ptr %23, align 8
  tail call void %24(ptr noundef nonnull align 8 dereferenceable(16) %11) #33
  br label %_ZN19OpenColorIO_v2_5dev17XmlReaderPlainEltD2Ev.exit

25:                                               ; preds = %12
  %26 = load i8, ptr @__libc_single_threaded, align 1, !tbaa !34
  %.not.i.i.i.i = icmp eq i8 %26, 0
  br i1 %.not.i.i.i.i, label %29, label %27

27:                                               ; preds = %25
  %28 = add nsw i32 %16, -1
  store i32 %28, ptr %13, align 4, !tbaa !35
  br label %_ZN9__gnu_cxx27__exchange_and_add_dispatchEPii.exit.i.i.i.i

29:                                               ; preds = %25
  %30 = atomicrmw volatile add ptr %13, i32 -1 acq_rel, align 4
  br label %_ZN9__gnu_cxx27__exchange_and_add_dispatchEPii.exit.i.i.i.i

_ZN9__gnu_cxx27__exchange_and_add_dispatchEPii.exit.i.i.i.i: ; preds = %29, %27
  %.0.i.i.i.i.i = phi i32 [ %16, %27 ], [ %30, %29 ]
  %31 = icmp eq i32 %.0.i.i.i.i.i, 1
  br i1 %31, label %32, label %_ZN19OpenColorIO_v2_5dev17XmlReaderPlainEltD2Ev.exit, !prof !36

32:                                               ; preds = %_ZN9__gnu_cxx27__exchange_and_add_dispatchEPii.exit.i.i.i.i
  tail call void @_ZNSt16_Sp_counted_baseILN9__gnu_cxx12_Lock_policyE2EE24_M_release_last_use_coldEv(ptr noundef nonnull align 8 dereferenceable(16) %11) #33
  br label %_ZN19OpenColorIO_v2_5dev17XmlReaderPlainEltD2Ev.exit

_ZN19OpenColorIO_v2_5dev17XmlReaderPlainEltD2Ev.exit: ; preds = %_ZNSt6vectorIfSaIfEED2Ev.exit, %17, %_ZN9__gnu_cxx27__exchange_and_add_dispatchEPii.exit.i.i.i.i, %32
  tail call void @_ZN19OpenColorIO_v2_5dev16XmlReaderElementD2Ev(ptr noundef nonnull align 8 dereferenceable(96) %0) #33
  ret void
}